; Function Attrs: nounwind uwtable
define hidden ptr @opj_stream_default_create(i32 noundef %0) local_unnamed_addr #5 {
  %2 = tail call ptr @opj_calloc(i64 noundef 1, i64 noundef 120) #9
  %.not.i = icmp eq ptr %2, null
  br i1 %.not.i, label %opj_stream_create.exit, label %3

3:                                                ; preds = %1
  %4 = getelementptr inbounds nuw i8, ptr %2, i64 104
  store i64 1048576, ptr %4, align 8, !tbaa !19
  %5 = tail call ptr @opj_malloc(i64 noundef 1048576) #9
  %6 = getelementptr inbounds nuw i8, ptr %2, i64 56
  store ptr %5, ptr %6, align 8, !tbaa !24
  %.not23.i = icmp eq ptr %5, null
  br i1 %.not23.i, label %7, label %8

7:                                                ; preds = %3
  tail call void @opj_free(ptr noundef nonnull %2) #9
  br label %opj_stream_create.exit

8:                                                ; preds = %3
  %9 = getelementptr inbounds nuw i8, ptr %2, i64 64
  store ptr %5, ptr %9, align 8, !tbaa !25
  %.not24.i = icmp eq i32 %0, 0
  %10 = getelementptr inbounds nuw i8, ptr %2, i64 112
  %11 = load i32, ptr %10, align 8, !tbaa !26
  %..i = select i1 %.not24.i, i32 1, i32 2
  %opj_stream_write_skip.opj_stream_read_skip.i = select i1 %.not24.i, ptr @opj_stream_write_skip, ptr @opj_stream_read_skip
  %opj_stream_write_seek.opj_stream_read_seek.i = select i1 %.not24.i, ptr @opj_stream_write_seek, ptr @opj_stream_read_seek
  %12 = or i32 %11, %..i
  store i32 %12, ptr %10, align 8, !tbaa !26
  %13 = getelementptr inbounds nuw i8, ptr %2, i64 72
  store ptr %opj_stream_write_skip.opj_stream_read_skip.i, ptr %13, align 8, !tbaa !27
  %14 = getelementptr inbounds nuw i8, ptr %2, i64 80
  store ptr %opj_stream_write_seek.opj_stream_read_seek.i, ptr %14, align 8, !tbaa !28
  %15 = getelementptr inbounds nuw i8, ptr %2, i64 24
  store ptr @opj_stream_default_read, ptr %15, align 8, !tbaa !29
  %16 = getelementptr inbounds nuw i8, ptr %2, i64 32
  store ptr @opj_stream_default_write, ptr %16, align 8, !tbaa !30
  %17 = getelementptr inbounds nuw i8, ptr %2, i64 40
  store ptr @opj_stream_default_skip, ptr %17, align 8, !tbaa !31
  %18 = getelementptr inbounds nuw i8, ptr %2, i64 48
  store ptr @opj_stream_default_seek, ptr %18, align 8, !tbaa !32
  br label %opj_stream_create.exit

opj_stream_create.exit:                           ; preds = %1, %7, %8
  %.0.i = phi ptr [ %2, %8 ], [ null, %7 ], [ null, %1 ]
  ret ptr %.0.i
}